target datalayout = "e-m:e-p270:32:32-p271:32:32-p272:64:64-i64:64-i128:128-f80:128-n8:16:32:64-S128"
target triple = "x86_64-pc-linux-gnu"

%struct._sapi_module_struct = type { ptr, ptr, ptr, ptr, ptr, ptr, ptr, ptr, ptr, ptr, ptr, ptr, ptr, ptr, ptr, ptr, ptr, ptr, ptr, ptr, ptr, ptr, ptr, ptr, i32, i32, ptr, ptr, ptr, ptr, ptr, ptr, i32, ptr, ptr, ptr }

@sapi_module = dso_local global %struct._sapi_module_struct zeroinitializer, align 8
@.str.26 = private unnamed_addr constant [11 x i8] c"HTTP_PROXY\00", align 1

; Function Attrs: nounwind uwtable
define dso_local ptr @sapi_getenv(ptr noundef %0, i64 noundef %1) #0 {
  %3 = alloca ptr, align 8
  %4 = alloca ptr, align 8
  %5 = alloca i64, align 8
  %6 = alloca ptr, align 8
  %7 = alloca ptr, align 8
  %8 = alloca i32, align 4
  store ptr %0, ptr %4, align 8, !tbaa !15
  store i64 %1, ptr %5, align 8, !tbaa !95
  call void @llvm.lifetime.start.p0(i64 8, ptr %6) #15
  call void @llvm.lifetime.start.p0(i64 8, ptr %7) #15
  %9 = load ptr, ptr getelementptr inbounds nuw (%struct._sapi_module_struct, ptr @sapi_module, i32 0, i32 9), align 8, !tbaa !171
  %10 = icmp ne ptr %9, null
  br i1 %10, label %12, label %11

11:                                               ; preds = %2
  store ptr null, ptr %3, align 8
  store i32 1, ptr %8, align 4
  br label %39

12:                                               ; preds = %2
  %13 = load ptr, ptr %4, align 8, !tbaa !15
  %14 = load i64, ptr %5, align 8, !tbaa !95
  %15 = call i32 @strncasecmp(ptr noundef %13, ptr noundef @.str.26, i64 noundef %14) #16
  %16 = icmp ne i32 %15, 0
  br i1 %16, label %18, label %17

17:                                               ; preds = %12
  store ptr null, ptr %3, align 8
  store i32 1, ptr %8, align 4
  br label %39

18:                                               ; preds = %12
  %19 = load ptr, ptr getelementptr inbounds nuw (%struct._sapi_module_struct, ptr @sapi_module, i32 0, i32 9), align 8, !tbaa !171
  %20 = load ptr, ptr %4, align 8, !tbaa !15
  %21 = load i64, ptr %5, align 8, !tbaa !95
  %22 = call ptr %19(ptr noundef %20, i64 noundef %21)
  store ptr %22, ptr %7, align 8, !tbaa !15
  %23 = load ptr, ptr %7, align 8, !tbaa !15
  %24 = icmp ne ptr %23, null
  br i1 %24, label %26, label %25

25:                                               ; preds = %18
  store ptr null, ptr %3, align 8
  store i32 1, ptr %8, align 4
  br label %39

26:                                               ; preds = %18
  %27 = load ptr, ptr %7, align 8, !tbaa !15
  %28 = call noalias ptr @_estrdup(ptr noundef %27)
  store ptr %28, ptr %6, align 8, !tbaa !15
  %29 = load ptr, ptr getelementptr inbounds nuw (%struct._sapi_module_struct, ptr @sapi_module, i32 0, i32 30), align 8, !tbaa !167
  %30 = icmp ne ptr %29, null
  br i1 %30, label %31, label %37

31:                                               ; preds = %26
  %32 = load ptr, ptr getelementptr inbounds nuw (%struct._sapi_module_struct, ptr @sapi_module, i32 0, i32 30), align 8, !tbaa !167
  %33 = load ptr, ptr %4, align 8, !tbaa !15
  %34 = load ptr, ptr %6, align 8, !tbaa !15
  %35 = call i64 @strlen(ptr noundef %34) #16
  %36 = call i32 %32(i32 noundef 3, ptr noundef %33, ptr noundef %6, i64 noundef %35, ptr noundef null)
  br label %37

37:                                               ; preds = %31, %26
  %38 = load ptr, ptr %6, align 8, !tbaa !15
  store ptr %38, ptr %3, align 8
  store i32 1, ptr %8, align 4
  br label %39

39:                                               ; preds = %37, %25, %17, %11
  call void @llvm.lifetime.end.p0(i64 8, ptr %7) #15
  call void @llvm.lifetime.end.p0(i64 8, ptr %6) #15
  %40 = load ptr, ptr %3, align 8
  ret ptr %40
}