; Function Attrs: nounwind uwtable
define dso_local ptr @sapi_getenv(ptr noundef %0, i64 noundef %1) local_unnamed_addr #0 {
  %3 = alloca ptr, align 8
  call void @llvm.lifetime.start.p0(i64 8, ptr nonnull %3) #19
  %4 = load ptr, ptr getelementptr inbounds nuw (i8, ptr @sapi_module, i64 72), align 8, !tbaa !153
  %.not = icmp eq ptr %4, null
  br i1 %.not, label %15, label %5

5:                                                ; preds = %2
  %6 = tail call i32 @strncasecmp(ptr noundef %0, ptr noundef nonnull @.str.26, i64 noundef %1) #20
  %.not10 = icmp eq i32 %6, 0
  br i1 %.not10, label %15, label %7

7:                                                ; preds = %5
  %8 = tail call ptr %4(ptr noundef %0, i64 noundef %1) #19
  %.not11 = icmp eq ptr %8, null
  br i1 %.not11, label %15, label %9

9:                                                ; preds = %7
  %10 = tail call noalias ptr @_estrdup(ptr noundef nonnull %8) #19
  store ptr %10, ptr %3, align 8, !tbaa !13
  %11 = load ptr, ptr getelementptr inbounds nuw (i8, ptr @sapi_module, i64 232), align 8, !tbaa !149
  %.not12 = icmp eq ptr %11, null
  br i1 %.not12, label %15, label %12

12:                                               ; preds = %9
  %13 = tail call i64 @strlen(ptr noundef nonnull dereferenceable(1) %10) #20
  %14 = call i32 %11(i32 noundef 3, ptr noundef %0, ptr noundef nonnull %3, i64 noundef %13, ptr noundef null) #19
  %.pre = load ptr, ptr %3, align 8, !tbaa !13
  br label %15

15:                                               ; preds = %9, %12, %7, %5, %2
  %.0 = phi ptr [ null, %2 ], [ null, %5 ], [ null, %7 ], [ %.pre, %12 ], [ %10, %9 ]
  call void @llvm.lifetime.end.p0(i64 8, ptr nonnull %3) #19
  ret ptr %.0
}